target datalayout = "e-m:e-p270:32:32-p271:32:32-p272:64:64-i64:64-i128:128-f80:128-n8:16:32:64-S128"
target triple = "x86_64-unknown-linux-gnu"

%"class.std::vector.44" = type { %"struct.std::_Vector_base.45" }
%"struct.std::_Vector_base.45" = type { %"struct.std::_Vector_base<unsigned long, std::allocator<unsigned long>>::_Vector_impl" }
%"struct.std::_Vector_base<unsigned long, std::allocator<unsigned long>>::_Vector_impl" = type { %"struct.std::_Vector_base<unsigned long, std::allocator<unsigned long>>::_Vector_impl_data" }
%"struct.std::_Vector_base<unsigned long, std::allocator<unsigned long>>::_Vector_impl_data" = type { ptr, ptr, ptr }
%"struct.facebook::velox::StringView" = type { i32, [4 x i8], %union.anon.117 }
%union.anon.117 = type { ptr }
%"class.std::__exception_ptr::exception_ptr" = type { ptr }
%"class.std::invalid_argument" = type { %"class.std::logic_error" }
%"class.std::logic_error" = type { %"class.std::exception", %"struct.std::__cow_string" }
%"class.std::exception" = type { ptr }
%"struct.std::__cow_string" = type { %union.anon.119 }
%union.anon.119 = type { ptr }
%"class.facebook::velox::DecodedVector" = type { i32, ptr, ptr, ptr, %"class.std::optional.104", ptr, i8, i8, i8, i8, i8, i32, %"class.std::vector.112", %"class.std::vector.44" }
%"class.std::optional.104" = type { %"struct.std::_Optional_base.105" }
%"struct.std::_Optional_base.105" = type { %"struct.std::_Optional_payload.107" }
%"struct.std::_Optional_payload.107" = type { %"struct.std::_Optional_payload_base.base.109", [7 x i8] }
%"struct.std::_Optional_payload_base.base.109" = type <{ %"union.std::_Optional_payload_base<const unsigned long *>::_Storage", i8 }>
%"union.std::_Optional_payload_base<const unsigned long *>::_Storage" = type { ptr }
%"class.std::vector.112" = type { %"struct.std::_Vector_base.113" }
%"struct.std::_Vector_base.113" = type { %"struct.std::_Vector_base<int, std::allocator<int>>::_Vector_impl" }
%"struct.std::_Vector_base<int, std::allocator<int>>::_Vector_impl" = type { %"struct.std::_Vector_base<int, std::allocator<int>>::_Vector_impl_data" }
%"struct.std::_Vector_base<int, std::allocator<int>>::_Vector_impl_data" = type { ptr, ptr, ptr }
%class.anon.264 = type { ptr, ptr, ptr, ptr, ptr, ptr }

@.str.7 = private unnamed_addr constant [23 x i8] c"Limit must be positive\00", align 1
@_ZTISt16invalid_argument = external constant ptr
@_ZTVSt16invalid_argument = external unnamed_addr constant { [5 x ptr] }, align 8

; Function Attrs: mustprogress nounwind uwtable
define linkonce_odr void @_ZNSt16invalid_argumentC2ERKS_(ptr noundef nonnull align 8 dereferenceable(16) %this, ptr noundef nonnull align 8 dereferenceable(16) %0) unnamed_addr #2 comdat align 2 {
entry:
  %this.addr = alloca ptr, align 8
  %.addr = alloca ptr, align 8
  store ptr %this, ptr %this.addr, align 8
  store ptr %0, ptr %.addr, align 8
  %this1 = load ptr, ptr %this.addr, align 8
  %1 = load ptr, ptr %.addr, align 8
  call void @_ZNSt11logic_errorC2ERKS_(ptr noundef nonnull align 8 dereferenceable(16) %this1, ptr noundef nonnull align 8 dereferenceable(16) %1) #25
  store ptr getelementptr inbounds ({ [5 x ptr] }, ptr @_ZTVSt16invalid_argument, i32 0, i32 0, i32 2), ptr %this1, align 8
  ret void
}

; Function Attrs: mustprogress nounwind uwtable
define linkonce_odr noundef i32 @_ZNK8facebook5velox13DecodedVector5indexEi(ptr noundef nonnull align 8 dereferenceable(120) %this, i32 noundef %idx) #2 comdat align 2 {
entry:
  %retval = alloca i32, align 4
  %this.addr = alloca ptr, align 8
  %idx.addr = alloca i32, align 4
  store ptr %this, ptr %this.addr, align 8
  store i32 %idx, ptr %idx.addr, align 4
  %this1 = load ptr, ptr %this.addr, align 8
  %isIdentityMapping_ = getelementptr inbounds %"class.facebook::velox::DecodedVector", ptr %this1, i32 0, i32 8
  %0 = load i8, ptr %isIdentityMapping_, align 2
  %tobool = trunc i8 %0 to i1
  br i1 %tobool, label %if.then, label %if.end

if.then:                                          ; preds = %entry
  %1 = load i32, ptr %idx.addr, align 4
  store i32 %1, ptr %retval, align 4
  br label %return

if.end:                                           ; preds = %entry
  %isConstantMapping_ = getelementptr inbounds %"class.facebook::velox::DecodedVector", ptr %this1, i32 0, i32 9
  %2 = load i8, ptr %isConstantMapping_, align 1
  %tobool2 = trunc i8 %2 to i1
  br i1 %tobool2, label %if.then3, label %if.end4

if.then3:                                         ; preds = %if.end
  %constantIndex_ = getelementptr inbounds %"class.facebook::velox::DecodedVector", ptr %this1, i32 0, i32 11
  %3 = load i32, ptr %constantIndex_, align 8
  store i32 %3, ptr %retval, align 4
  br label %return

if.end4:                                          ; preds = %if.end
  %indices_ = getelementptr inbounds %"class.facebook::velox::DecodedVector", ptr %this1, i32 0, i32 1
  %4 = load ptr, ptr %indices_, align 8
  %5 = load i32, ptr %idx.addr, align 4
  %idxprom = sext i32 %5 to i64
  %arrayidx = getelementptr inbounds i32, ptr %4, i64 %idxprom
  %6 = load i32, ptr %arrayidx, align 4
  store i32 %6, ptr %retval, align 4
  br label %return

return:                                           ; preds = %if.end4, %if.then3, %if.then
  %7 = load i32, ptr %retval, align 4
  ret i32 %7
}

; Function Attrs: mustprogress nounwind uwtable
define linkonce_odr void @_ZNSt15__exception_ptr13exception_ptrD2Ev(ptr noundef nonnull align 8 dereferenceable(8) %this) unnamed_addr #2 comdat align 2 {
entry:
  %this.addr = alloca ptr, align 8
  store ptr %this, ptr %this.addr, align 8
  %this1 = load ptr, ptr %this.addr, align 8
  %_M_exception_object = getelementptr inbounds %"class.std::__exception_ptr::exception_ptr", ptr %this1, i32 0, i32 0
  %0 = load ptr, ptr %_M_exception_object, align 8
  %tobool = icmp ne ptr %0, null
  br i1 %tobool, label %if.then, label %if.end

if.then:                                          ; preds = %entry
  call void @_ZNSt15__exception_ptr13exception_ptr10_M_releaseEv(ptr noundef nonnull align 8 dereferenceable(8) %this1) #25
  br label %if.end

if.end:                                           ; preds = %if.then, %entry
  ret void
}

; Function Attrs: mustprogress nounwind uwtable
define linkonce_odr void @_ZSt18make_exception_ptrISt16invalid_argumentENSt15__exception_ptr13exception_ptrET_(ptr noalias sret(%"class.std::__exception_ptr::exception_ptr") align 8 %agg.result, ptr noundef %__ex) #2 comdat {
entry:
  %result.ptr = alloca ptr, align 8
  %__ex.indirect_addr = alloca ptr, align 8
  %__e = alloca ptr, align 8
  store ptr %agg.result, ptr %result.ptr, align 8
  store ptr %__ex, ptr %__ex.indirect_addr, align 8
  %call = call ptr @__cxa_allocate_exception(i64 noundef 16) #25
  store ptr %call, ptr %__e, align 8
  %0 = load ptr, ptr %__e, align 8
  %call1 = call ptr @__cxa_init_primary_exception(ptr noundef %0, ptr noundef @_ZTISt16invalid_argument, ptr noundef @_ZNSt15__exception_ptr12__dest_thunkISt16invalid_argumentEEvPv) #25
  %1 = load ptr, ptr %__e, align 8
  call void @_ZNSt16invalid_argumentC2ERKS_(ptr noundef nonnull align 8 dereferenceable(16) %1, ptr noundef nonnull align 8 dereferenceable(16) %__ex) #25
  %2 = load ptr, ptr %__e, align 8
  call void @_ZNSt15__exception_ptr13exception_ptrC1EPv(ptr noundef nonnull align 8 dereferenceable(8) %agg.result, ptr noundef %2) #25
  ret void
}

; Function Attrs: mustprogress uwtable
define linkonce_odr { i64, ptr } @_ZNK8facebook5velox13DecodedVector7valueAtINS0_10StringViewEEET_i(ptr noundef nonnull align 8 dereferenceable(120) %this, i32 noundef %idx) #0 comdat align 2 {
entry:
  %retval = alloca %"struct.facebook::velox::StringView", align 8
  %this.addr = alloca ptr, align 8
  %idx.addr = alloca i32, align 4
  store ptr %this, ptr %this.addr, align 8
  store i32 %idx, ptr %idx.addr, align 4
  %this1 = load ptr, ptr %this.addr, align 8
  %data_ = getelementptr inbounds %"class.facebook::velox::DecodedVector", ptr %this1, i32 0, i32 2
  %0 = load ptr, ptr %data_, align 8
  %1 = load i32, ptr %idx.addr, align 4
  %call = call noundef i32 @_ZNK8facebook5velox13DecodedVector5indexEi(ptr noundef nonnull align 8 dereferenceable(120) %this1, i32 noundef %1)
  %idxprom = sext i32 %call to i64
  %arrayidx = getelementptr inbounds %"struct.facebook::velox::StringView", ptr %0, i64 %idxprom
  call void @llvm.memcpy.p0.p0.i64(ptr align 8 %retval, ptr align 8 %arrayidx, i64 16, i1 false)
  %2 = load { i64, ptr }, ptr %retval, align 8
  ret { i64, ptr } %2
}

; Function Attrs: mustprogress nounwind uwtable
define linkonce_odr noundef i64 @_ZNK8facebook5velox13DecodedVector7valueAtIlEET_i(ptr noundef nonnull align 8 dereferenceable(120) %this, i32 noundef %idx) #2 comdat align 2 {
entry:
  %this.addr = alloca ptr, align 8
  %idx.addr = alloca i32, align 4
  store ptr %this, ptr %this.addr, align 8
  store i32 %idx, ptr %idx.addr, align 4
  %this1 = load ptr, ptr %this.addr, align 8
  %data_ = getelementptr inbounds %"class.facebook::velox::DecodedVector", ptr %this1, i32 0, i32 2
  %0 = load ptr, ptr %data_, align 8
  %1 = load i32, ptr %idx.addr, align 4
  %call = call noundef i32 @_ZNK8facebook5velox13DecodedVector5indexEi(ptr noundef nonnull align 8 dereferenceable(120) %this1, i32 noundef %1)
  %idxprom = sext i32 %call to i64
  %arrayidx = getelementptr inbounds i64, ptr %0, i64 %idxprom
  %2 = load i64, ptr %arrayidx, align 8
  ret i64 %2
}

; Function Attrs: mustprogress uwtable
define internal void @_ZZNK8facebook5velox9functions12_GLOBAL__N_113SplitFunction12applyDecodedIlEEvRKNS0_17SelectivityVectorERNS0_4exec7EvalCtxEPNS0_13DecodedVectorESC_SC_RNS8_12VectorWriterINS0_5ArrayINS0_7VarcharEEEvEEENKUliE0_clEi(ptr noundef nonnull align 8 dereferenceable(48) %this, i32 noundef %row) #0 align 2 personality ptr @__gxx_personality_v0 {
entry:
  %this.addr = alloca ptr, align 8
  %row.addr = alloca i32, align 4
  %limit = alloca i64, align 8
  %agg.tmp = alloca %"struct.facebook::velox::StringView", align 8
  %agg.tmp3 = alloca %"struct.facebook::velox::StringView", align 8
  %pex = alloca %"class.std::__exception_ptr::exception_ptr", align 8
  %agg.tmp5 = alloca %"class.std::invalid_argument", align 8
  %exn.slot = alloca ptr, align 8
  %ehselector.slot = alloca i32, align 4
  store ptr %this, ptr %this.addr, align 8
  store i32 %row, ptr %row.addr, align 4
  %this1 = load ptr, ptr %this.addr, align 8
  %0 = getelementptr inbounds %class.anon.264, ptr %this1, i32 0, i32 4
  %1 = load ptr, ptr %0, align 8
  %2 = getelementptr inbounds %class.anon.264, ptr %this1, i32 0, i32 0
  %3 = load ptr, ptr %2, align 8
  %4 = load ptr, ptr %3, align 8
  %5 = load i32, ptr %row.addr, align 4
  %call = call noundef i64 @_ZNK8facebook5velox13DecodedVector7valueAtIlEET_i(ptr noundef nonnull align 8 dereferenceable(120) %4, i32 noundef %5)
  store i64 %call, ptr %limit, align 8
  %6 = load i64, ptr %limit, align 8
  %cmp = icmp sgt i64 %6, 0
  br i1 %cmp, label %if.then, label %if.else

if.then:                                          ; preds = %entry
  %7 = getelementptr inbounds %class.anon.264, ptr %this1, i32 0, i32 1
  %8 = load ptr, ptr %7, align 8
  %9 = load ptr, ptr %8, align 8
  %10 = load i32, ptr %row.addr, align 4
  %call2 = call { i64, ptr } @_ZNK8facebook5velox13DecodedVector7valueAtINS0_10StringViewEEET_i(ptr noundef nonnull align 8 dereferenceable(120) %9, i32 noundef %10)
  %11 = getelementptr inbounds { i64, ptr }, ptr %agg.tmp, i32 0, i32 0
  %12 = extractvalue { i64, ptr } %call2, 0
  store i64 %12, ptr %11, align 8
  %13 = getelementptr inbounds { i64, ptr }, ptr %agg.tmp, i32 0, i32 1
  %14 = extractvalue { i64, ptr } %call2, 1
  store ptr %14, ptr %13, align 8
  %15 = getelementptr inbounds %class.anon.264, ptr %this1, i32 0, i32 2
  %16 = load ptr, ptr %15, align 8
  %17 = load ptr, ptr %16, align 8
  %18 = load i32, ptr %row.addr, align 4
  %call4 = call { i64, ptr } @_ZNK8facebook5velox13DecodedVector7valueAtINS0_10StringViewEEET_i(ptr noundef nonnull align 8 dereferenceable(120) %17, i32 noundef %18)
  %19 = getelementptr inbounds { i64, ptr }, ptr %agg.tmp3, i32 0, i32 0
  %20 = extractvalue { i64, ptr } %call4, 0
  store i64 %20, ptr %19, align 8
  %21 = getelementptr inbounds { i64, ptr }, ptr %agg.tmp3, i32 0, i32 1
  %22 = extractvalue { i64, ptr } %call4, 1
  store ptr %22, ptr %21, align 8
  %23 = load i64, ptr %limit, align 8
  %24 = load i32, ptr %row.addr, align 4
  %25 = getelementptr inbounds %class.anon.264, ptr %this1, i32 0, i32 3
  %26 = load ptr, ptr %25, align 8
  %27 = getelementptr inbounds { i64, ptr }, ptr %agg.tmp, i32 0, i32 0
  %28 = load i64, ptr %27, align 8
  %29 = getelementptr inbounds { i64, ptr }, ptr %agg.tmp, i32 0, i32 1
  %30 = load ptr, ptr %29, align 8
  %31 = getelementptr inbounds { i64, ptr }, ptr %agg.tmp3, i32 0, i32 0
  %32 = load i64, ptr %31, align 8
  %33 = getelementptr inbounds { i64, ptr }, ptr %agg.tmp3, i32 0, i32 1
  %34 = load ptr, ptr %33, align 8
  call void @_ZNK8facebook5velox9functions12_GLOBAL__N_113SplitFunction10applyInnerILb1ElEEvNS0_10StringViewES5_T0_iRNS0_4exec12VectorWriterINS0_5ArrayINS0_7VarcharEEEvEE(ptr noundef nonnull align 8 dereferenceable(8) %1, i64 %28, ptr %30, i64 %32, ptr %34, i64 noundef %23, i32 noundef %24, ptr noundef nonnull align 8 dereferenceable(192) %26)
  br label %if.end

if.else:                                          ; preds = %entry
  call void @_ZNSt16invalid_argumentC1EPKc(ptr noundef nonnull align 8 dereferenceable(16) %agg.tmp5, ptr noundef @.str.7)
  call void @_ZSt18make_exception_ptrISt16invalid_argumentENSt15__exception_ptr13exception_ptrET_(ptr sret(%"class.std::__exception_ptr::exception_ptr") align 8 %pex, ptr noundef %agg.tmp5) #25
  call void @_ZNSt16invalid_argumentD1Ev(ptr noundef nonnull align 8 dereferenceable(16) %agg.tmp5) #25
  %35 = getelementptr inbounds %class.anon.264, ptr %this1, i32 0, i32 5
  %36 = load ptr, ptr %35, align 8
  %37 = load i32, ptr %row.addr, align 4
  invoke void @_ZN8facebook5velox4exec7EvalCtx8setErrorEiRKNSt15__exception_ptr13exception_ptrE(ptr noundef nonnull align 8 dereferenceable(104) %36, i32 noundef %37, ptr noundef nonnull align 8 dereferenceable(8) %pex)
          to label %invoke.cont unwind label %lpad

invoke.cont:                                      ; preds = %if.else
  call void @_ZNSt15__exception_ptr13exception_ptrD2Ev(ptr noundef nonnull align 8 dereferenceable(8) %pex) #25
  br label %if.end

lpad:                                             ; preds = %if.else
  %38 = landingpad { ptr, i32 }
          cleanup
  %39 = extractvalue { ptr, i32 } %38, 0
  store ptr %39, ptr %exn.slot, align 8
  %40 = extractvalue { ptr, i32 } %38, 1
  store i32 %40, ptr %ehselector.slot, align 4
  call void @_ZNSt15__exception_ptr13exception_ptrD2Ev(ptr noundef nonnull align 8 dereferenceable(8) %pex) #25
  br label %eh.resume

if.end:                                           ; preds = %invoke.cont, %if.then
  ret void

eh.resume:                                        ; preds = %lpad
  %exn = load ptr, ptr %exn.slot, align 8
  %sel = load i32, ptr %ehselector.slot, align 4
  %lpad.val = insertvalue { ptr, i32 } poison, ptr %exn, 0
  %lpad.val6 = insertvalue { ptr, i32 } %lpad.val, i32 %sel, 1
  resume { ptr, i32 } %lpad.val6
}